target datalayout = "e-m:e-p270:32:32-p271:32:32-p272:64:64-i64:64-i128:128-f80:128-n8:16:32:64-S128"
target triple = "x86_64-pc-linux-gnu"

%struct.CLzma2Dec = type { %struct.CLzmaDec, i32, i32, i32, i8, i32, i32, i32 }
%struct.CLzmaDec = type { %struct._CLzmaProps, ptr, ptr, ptr, i32, i32, i64, i64, i32, i32, i32, [4 x i32], i32, i32, i32, i32, i32, [20 x i8] }
%struct._CLzmaProps = type { i32, i32, i32, i32 }

; Function Attrs: nounwind uwtable
define internal i32 @Lzma2Dec_GetOldProps(i8 noundef zeroext %0, ptr noundef %1) #0 {
  %3 = alloca i32, align 4
  %4 = alloca i8, align 1
  %5 = alloca ptr, align 8
  %6 = alloca i32, align 4
  store i8 %0, ptr %4, align 1
  store ptr %1, ptr %5, align 8
  %7 = load i8, ptr %4, align 1
  %8 = zext i8 %7 to i32
  %9 = icmp sgt i32 %8, 40
  br i1 %9, label %10, label %11

10:                                               ; preds = %2
  store i32 4, ptr %3, align 4
  br label %49

11:                                               ; preds = %2
  %12 = load i8, ptr %4, align 1
  %13 = zext i8 %12 to i32
  %14 = icmp eq i32 %13, 40
  br i1 %14, label %15, label %16

15:                                               ; preds = %11
  br label %26

16:                                               ; preds = %11
  %17 = load i8, ptr %4, align 1
  %18 = zext i8 %17 to i32
  %19 = and i32 %18, 1
  %20 = or i32 2, %19
  %21 = load i8, ptr %4, align 1
  %22 = zext i8 %21 to i32
  %23 = sdiv i32 %22, 2
  %24 = add nsw i32 %23, 11
  %25 = shl i32 %20, %24
  br label %26

26:                                               ; preds = %16, %15
  %27 = phi i32 [ -1, %15 ], [ %25, %16 ]
  store i32 %27, ptr %6, align 4
  %28 = load ptr, ptr %5, align 8
  %29 = getelementptr inbounds i8, ptr %28, i64 0
  store i8 4, ptr %29, align 1
  %30 = load i32, ptr %6, align 4
  %31 = trunc i32 %30 to i8
  %32 = load ptr, ptr %5, align 8
  %33 = getelementptr inbounds i8, ptr %32, i64 1
  store i8 %31, ptr %33, align 1
  %34 = load i32, ptr %6, align 4
  %35 = lshr i32 %34, 8
  %36 = trunc i32 %35 to i8
  %37 = load ptr, ptr %5, align 8
  %38 = getelementptr inbounds i8, ptr %37, i64 2
  store i8 %36, ptr %38, align 1
  %39 = load i32, ptr %6, align 4
  %40 = lshr i32 %39, 16
  %41 = trunc i32 %40 to i8
  %42 = load ptr, ptr %5, align 8
  %43 = getelementptr inbounds i8, ptr %42, i64 3
  store i8 %41, ptr %43, align 1
  %44 = load i32, ptr %6, align 4
  %45 = lshr i32 %44, 24
  %46 = trunc i32 %45 to i8
  %47 = load ptr, ptr %5, align 8
  %48 = getelementptr inbounds i8, ptr %47, i64 4
  store i8 %46, ptr %48, align 1
  store i32 0, ptr %3, align 4
  br label %49

49:                                               ; preds = %26, %10
  %50 = load i32, ptr %3, align 4
  ret i32 %50
}

; Function Attrs: nounwind uwtable
define i32 @Lzma2Dec_Allocate(ptr noundef %0, i8 noundef zeroext %1, ptr noundef %2) #0 {
  %4 = alloca i32, align 4
  %5 = alloca ptr, align 8
  %6 = alloca i8, align 1
  %7 = alloca ptr, align 8
  %8 = alloca [5 x i8], align 1
  %9 = alloca i32, align 4
  store ptr %0, ptr %5, align 8
  store i8 %1, ptr %6, align 1
  store ptr %2, ptr %7, align 8
  %10 = load i8, ptr %6, align 1
  %11 = getelementptr inbounds [5 x i8], ptr %8, i64 0, i64 0
  %12 = call i32 @Lzma2Dec_GetOldProps(i8 noundef zeroext %10, ptr noundef %11)
  store i32 %12, ptr %9, align 4
  %13 = load i32, ptr %9, align 4
  %14 = icmp ne i32 %13, 0
  br i1 %14, label %15, label %17

15:                                               ; preds = %3
  %16 = load i32, ptr %9, align 4
  store i32 %16, ptr %4, align 4
  br label %23

17:                                               ; preds = %3
  %18 = load ptr, ptr %5, align 8
  %19 = getelementptr inbounds %struct.CLzma2Dec, ptr %18, i32 0, i32 0
  %20 = getelementptr inbounds [5 x i8], ptr %8, i64 0, i64 0
  %21 = load ptr, ptr %7, align 8
  %22 = call i32 @LzmaDec_Allocate(ptr noundef %19, ptr noundef %20, i32 noundef 5, ptr noundef %21)
  store i32 %22, ptr %4, align 4
  br label %23

23:                                               ; preds = %17, %15
  %24 = load i32, ptr %4, align 4
  ret i32 %24
}