; Function Attrs: nounwind uwtable
define i32 @Lzma2Dec_Allocate(ptr noundef %0, i8 noundef zeroext %1, ptr noundef %2) local_unnamed_addr #0 {
  %4 = alloca [5 x i8], align 1
  %5 = zext i8 %1 to i32
  %6 = icmp ugt i8 %1, 40
  br i1 %6, label %Lzma2Dec_GetOldProps.exit, label %7

7:                                                ; preds = %3
  %8 = icmp eq i8 %1, 40
  br i1 %8, label %15, label %9

9:                                                ; preds = %7
  %10 = and i32 %5, 1
  %11 = or disjoint i32 %10, 2
  %12 = lshr i32 %5, 1
  %13 = add nuw nsw i32 %12, 11
  %14 = shl nuw i32 %11, %13
  br label %15

15:                                               ; preds = %7, %9
  %16 = phi i32 [ %14, %9 ], [ -1, %7 ]
  store i8 4, ptr %4, align 1
  %17 = trunc i32 %16 to i8
  %18 = getelementptr inbounds nuw i8, ptr %4, i64 1
  store i8 %17, ptr %18, align 1
  %19 = lshr i32 %16, 8
  %20 = trunc i32 %19 to i8
  %21 = getelementptr inbounds nuw i8, ptr %4, i64 2
  store i8 %20, ptr %21, align 1
  %22 = lshr i32 %16, 16
  %23 = trunc i32 %22 to i8
  %24 = getelementptr inbounds nuw i8, ptr %4, i64 3
  store i8 %23, ptr %24, align 1
  %25 = lshr i32 %16, 24
  %26 = trunc nuw i32 %25 to i8
  %27 = getelementptr inbounds nuw i8, ptr %4, i64 4
  store i8 %26, ptr %27, align 1
  %28 = call i32 @LzmaDec_Allocate(ptr noundef %0, ptr noundef nonnull %4, i32 noundef 5, ptr noundef %2) #4
  br label %Lzma2Dec_GetOldProps.exit

Lzma2Dec_GetOldProps.exit:                        ; preds = %3, %15
  %.0 = phi i32 [ %28, %15 ], [ 4, %3 ]
  ret i32 %.0
}